; Function Attrs: mustprogress uwtable
define noundef zeroext i1 @_ZNK6casadi6SXElem7is_leafEv(ptr nocapture noundef nonnull readonly align 8 dereferenceable(8) %0) local_unnamed_addr #6 align 2 {
  %2 = load ptr, ptr %0, align 8
  %.not = icmp eq ptr %2, null
  br i1 %.not, label %14, label %3

3:                                                ; preds = %1
  %4 = load ptr, ptr %2, align 8
  %5 = getelementptr inbounds i8, ptr %4, i64 16
  %6 = load ptr, ptr %5, align 8
  %7 = tail call noundef zeroext i1 %6(ptr noundef nonnull align 8 dereferenceable(16) %2)
  br i1 %7, label %14, label %8

8:                                                ; preds = %3
  %9 = load ptr, ptr %0, align 8
  %10 = load ptr, ptr %9, align 8
  %11 = getelementptr inbounds i8, ptr %10, i64 32
  %12 = load ptr, ptr %11, align 8
  %13 = tail call noundef zeroext i1 %12(ptr noundef nonnull align 8 dereferenceable(16) %9)
  br label %14

14:                                               ; preds = %3, %8, %1
  %.0 = phi i1 [ true, %1 ], [ true, %3 ], [ %13, %8 ]
  ret i1 %.0
}